target datalayout = "e-m:e-p270:32:32-p271:32:32-p272:64:64-i64:64-i128:128-f80:128-n8:16:32:64-S128"
target triple = "x86_64-pc-linux-gnu"

%"class.cv::ocl::KernelArg" = type { i32, ptr, ptr, i64, i32, i32 }

; Function Attrs: mustprogress nounwind uwtable
define void @_ZN2cv3ocl9KernelArgC2Ev(ptr noundef nonnull align 8 dereferenceable(40) %0) unnamed_addr #0 align 2 {
  %2 = alloca ptr, align 8
  store ptr %0, ptr %2, align 8, !tbaa !48
  %3 = load ptr, ptr %2, align 8
  %4 = getelementptr inbounds nuw %"class.cv::ocl::KernelArg", ptr %3, i32 0, i32 0
  store i32 0, ptr %4, align 8, !tbaa !50
  %5 = getelementptr inbounds nuw %"class.cv::ocl::KernelArg", ptr %3, i32 0, i32 1
  store ptr null, ptr %5, align 8, !tbaa !52
  %6 = getelementptr inbounds nuw %"class.cv::ocl::KernelArg", ptr %3, i32 0, i32 2
  store ptr null, ptr %6, align 8, !tbaa !53
  %7 = getelementptr inbounds nuw %"class.cv::ocl::KernelArg", ptr %3, i32 0, i32 3
  store i64 0, ptr %7, align 8, !tbaa !54
  %8 = getelementptr inbounds nuw %"class.cv::ocl::KernelArg", ptr %3, i32 0, i32 4
  store i32 1, ptr %8, align 8, !tbaa !55
  %9 = getelementptr inbounds nuw %"class.cv::ocl::KernelArg", ptr %3, i32 0, i32 5
  store i32 1, ptr %9, align 4, !tbaa !56
  ret void
}